target datalayout = "e-m:e-p270:32:32-p271:32:32-p272:64:64-i64:64-i128:128-f80:128-n8:16:32:64-S128"
target triple = "x86_64-pc-linux-gnu"

%struct.FunctionCallInfoBaseData = type { ptr, ptr, ptr, i32, i8, i16, [0 x %struct.NullableDatum] }
%struct.NullableDatum = type { i64, i8 }

@.str.3 = private unnamed_addr constant [10 x i8] c"regress.c\00", align 1
@.str.27 = private unnamed_addr constant [40 x i8] c"must be superuser to check PID liveness\00", align 1
@__func__.wait_pid = private unnamed_addr constant [9 x i8] c"wait_pid\00", align 1
@InterruptPending = external global i32, align 4
@.str.28 = private unnamed_addr constant [36 x i8] c"could not check PID %d liveness: %m\00", align 1

; Function Attrs: inlinehint nounwind uwtable
define internal i32 @DatumGetInt32(i64 noundef %0) #2 {
  %2 = alloca i64, align 8
  store i64 %0, ptr %2, align 8
  %3 = load i64, ptr %2, align 8
  %4 = trunc i64 %3 to i32
  ret i32 %4
}

; Function Attrs: nounwind uwtable
define i64 @wait_pid(ptr noundef %0) #0 {
  %2 = alloca ptr, align 8
  %3 = alloca i32, align 4
  store ptr %0, ptr %2, align 8
  call void @llvm.lifetime.start.p0(i64 4, ptr %3) #13
  %4 = load ptr, ptr %2, align 8
  %5 = getelementptr inbounds nuw %struct.FunctionCallInfoBaseData, ptr %4, i32 0, i32 6
  %6 = getelementptr inbounds [0 x %struct.NullableDatum], ptr %5, i64 0, i64 0
  %7 = getelementptr inbounds nuw %struct.NullableDatum, ptr %6, i32 0, i32 0
  %8 = load i64, ptr %7, align 8
  %9 = call i32 @DatumGetInt32(i64 noundef %8)
  store i32 %9, ptr %3, align 4
  %10 = call zeroext i1 @superuser()
  br i1 %10, label %22, label %11

11:                                               ; preds = %1
  br label %12

12:                                               ; preds = %11
  br i1 true, label %13, label %15

13:                                               ; preds = %12
  %14 = call zeroext i1 @errstart_cold(i32 noundef 21, ptr noundef null) #14
  br i1 %14, label %17, label %19

15:                                               ; preds = %12
  %16 = call zeroext i1 @errstart(i32 noundef 21, ptr noundef null)
  br i1 %16, label %17, label %19

17:                                               ; preds = %15, %13
  %18 = call i32 (ptr, ...) @errmsg_internal(ptr noundef @.str.27)
  call void @errfinish(ptr noundef @.str.3, i32 noundef 696, ptr noundef @__func__.wait_pid)
  br label %19

19:                                               ; preds = %17, %15, %13
  unreachable

20:                                               ; No predecessors!
  br label %21

21:                                               ; preds = %20
  br label %22

22:                                               ; preds = %21, %1
  br label %23

23:                                               ; preds = %38, %22
  %24 = load i32, ptr %3, align 4
  %25 = call i32 @kill(i32 noundef %24, i32 noundef 0) #13
  %26 = icmp eq i32 %25, 0
  br i1 %26, label %27, label %39

27:                                               ; preds = %23
  br label %28

28:                                               ; preds = %27
  %29 = load volatile i32, ptr @InterruptPending, align 4
  %30 = icmp ne i32 %29, 0
  %31 = zext i1 %30 to i32
  %32 = sext i32 %31 to i64
  %33 = call i64 @llvm.expect.i64(i64 %32, i64 0)
  %34 = icmp ne i64 %33, 0
  br i1 %34, label %35, label %36

35:                                               ; preds = %28
  call void @ProcessInterrupts()
  br label %36

36:                                               ; preds = %35, %28
  br label %37

37:                                               ; preds = %36
  br label %38

38:                                               ; preds = %37
  call void @pg_usleep(i64 noundef 50000)
  br label %23, !llvm.loop !18

39:                                               ; preds = %23
  %40 = call ptr @__errno_location() #16
  %41 = load i32, ptr %40, align 4
  %42 = icmp ne i32 %41, 3
  br i1 %42, label %43, label %55

43:                                               ; preds = %39
  br label %44

44:                                               ; preds = %43
  br i1 true, label %45, label %47

45:                                               ; preds = %44
  %46 = call zeroext i1 @errstart_cold(i32 noundef 21, ptr noundef null) #14
  br i1 %46, label %49, label %52

47:                                               ; preds = %44
  %48 = call zeroext i1 @errstart(i32 noundef 21, ptr noundef null)
  br i1 %48, label %49, label %52

49:                                               ; preds = %47, %45
  %50 = load i32, ptr %3, align 4
  %51 = call i32 (ptr, ...) @errmsg_internal(ptr noundef @.str.28, i32 noundef %50)
  call void @errfinish(ptr noundef @.str.3, i32 noundef 705, ptr noundef @__func__.wait_pid)
  br label %52

52:                                               ; preds = %49, %47, %45
  unreachable

53:                                               ; No predecessors!
  br label %54

54:                                               ; preds = %53
  br label %55

55:                                               ; preds = %54, %39
  call void @llvm.lifetime.end.p0(i64 4, ptr %3) #13
  ret i64 0
}