; Function Attrs: nounwind uwtable
define noundef i64 @wait_pid(ptr noundef readonly captures(none) %0) local_unnamed_addr #1 {
  %2 = getelementptr inbounds nuw i8, ptr %0, i64 32
  %3 = load i64, ptr %2, align 8
  %4 = trunc i64 %3 to i32
  %5 = tail call zeroext i1 @superuser() #18
  br i1 %5, label %.preheader, label %8

.preheader:                                       ; preds = %1
  %6 = tail call i32 @kill(i32 noundef %4, i32 noundef 0) #18
  %7 = icmp eq i32 %6, 0
  br i1 %7, label %.lr.ph, label %._crit_edge

8:                                                ; preds = %1
  %9 = tail call zeroext i1 @errstart_cold(i32 noundef 21, ptr noundef null) #19
  tail call void @llvm.assume(i1 %9)
  %10 = tail call i32 (ptr, ...) @errmsg_internal(ptr noundef nonnull @.str.27) #18
  tail call void @errfinish(ptr noundef nonnull @.str.3, i32 noundef 696, ptr noundef nonnull @__func__.wait_pid) #18
  unreachable

.lr.ph:                                           ; preds = %.preheader, %13
  %11 = load volatile i32, ptr @InterruptPending, align 4
  %.not2 = icmp eq i32 %11, 0
  br i1 %.not2, label %13, label %12, !prof !17

12:                                               ; preds = %.lr.ph
  tail call void @ProcessInterrupts() #18
  br label %13

13:                                               ; preds = %12, %.lr.ph
  tail call void @pg_usleep(i64 noundef 50000) #18
  %14 = tail call i32 @kill(i32 noundef %4, i32 noundef 0) #18
  %15 = icmp eq i32 %14, 0
  br i1 %15, label %.lr.ph, label %._crit_edge, !llvm.loop !18

._crit_edge:                                      ; preds = %13, %.preheader
  %16 = tail call ptr @__errno_location() #21
  %17 = load i32, ptr %16, align 4
  %.not = icmp eq i32 %17, 3
  br i1 %.not, label %21, label %18

18:                                               ; preds = %._crit_edge
  %19 = tail call zeroext i1 @errstart_cold(i32 noundef 21, ptr noundef null) #19
  tail call void @llvm.assume(i1 %19)
  %20 = tail call i32 (ptr, ...) @errmsg_internal(ptr noundef nonnull @.str.28, i32 noundef %4) #18
  tail call void @errfinish(ptr noundef nonnull @.str.3, i32 noundef 705, ptr noundef nonnull @__func__.wait_pid) #18
  unreachable

21:                                               ; preds = %._crit_edge
  ret i64 0
}